	.arch armv7-a
	.fpu softvfp
	.eabi_attribute 20, 1
	.eabi_attribute 21, 1
	.eabi_attribute 23, 3
	.eabi_attribute 24, 1
	.eabi_attribute 25, 1
	.eabi_attribute 26, 2
	.eabi_attribute 30, 2
	.eabi_attribute 18, 4
	.file	"hacc_export.c"
	.text
.Ltext0:
	.align	2
	.type	sp_hacc_internal, %function
sp_hacc_internal:
.LFB183:
	.file 1 "alps/kernel/mediatek/platform/mt6577/kernel/drivers/masp/asf/mach/hacc_export.c"
	.loc 1 74 0
	@ args = 12, pretend = 0, frame = 8
	@ frame_needed = 1, uses_anonymous_args = 0
.LVL0:
	mov	ip, sp
.LCFI0:
	stmfd	sp!, {r4, r5, r6, r7, r8, fp, ip, lr, pc}
.LCFI1:
	sub	fp, ip, #4
.LCFI2:
	sub	sp, sp, #12
.LCFI3:
.LVL1:
	.loc 1 74 0
	ldrb	r5, [fp, #4]	@ zero_extendqisi2
	mov	r4, r0
	mov	r6, r1
	ldr	r7, [fp, #8]
	.loc 1 80 0
	cmp	r5, #1
	.loc 1 74 0
	ldrb	r8, [fp, #12]	@ zero_extendqisi2
	.loc 1 80 0
	beq	.L18
.LVL2:
.L2:
	.loc 1 95 0
	cmp	r2, #0
	bne	.L4
	.loc 1 100 0
	ldr	r3, .L22
	ldrb	r3, [r3, #0]	@ zero_extendqisi2
	cmp	r3, #0
	beq	.L11
	.loc 1 106 0
	mov	r0, r2
	mov	r1, #32
	bl	hacc_set_key
.LVL3:
	.loc 1 108 0
	subs	r2, r0, #0
	bne	.L3
.L15:
	.loc 1 158 0
	mov	r2, r4
	mov	r0, r7
.LVL4:
	mov	r1, r4
	bic	r3, r6, #127
	bl	hacc_do_aes
.LVL5:
	.loc 1 160 0
	subs	r2, r0, #0
	bne	.L3
	.loc 1 173 0
	cmp	r5, #1
	beq	.L19
.LVL6:
.L9:
	.loc 1 185 0
	mov	r0, r4
	sub	sp, fp, #32
	ldmfd	sp, {r4, r5, r6, r7, r8, fp, sp, pc}
.L4:
	.loc 1 118 0
	cmp	r3, #1
	beq	.L7
	bcs	.L20
	.loc 1 124 0
	adds	r0, r8, #0
	ldr	r1, .L22+4
	movne	r0, #1
.L16:
	.loc 1 135 0
	bl	HACC_V3_Init
	.loc 1 137 0
	mov	r0, r4
	mov	r1, r6
	mov	r2, r4
	bl	HACC_V3_Run
	.loc 1 139 0
	bl	HACC_V3_Terminate
	.loc 1 173 0
	cmp	r5, #1
	bne	.L9
.L19:
	.loc 1 175 0
	bl	osal_hacc_unlock
	b	.L9
.L20:
	.loc 1 118 0
	cmp	r3, #2
	.loc 1 165 0
	movwne	r2, #24588
	.loc 1 118 0
	beq	.L21
.L3:
.LVL7:
	.loc 1 181 0 discriminator 1
	ldr	r1, .L22+8
	ldr	r0, .L22+12
	bl	printk
.LVL8:
	.loc 1 182 0 discriminator 1
#APP
@ 182 "alps/kernel/mediatek/platform/mt6577/kernel/drivers/masp/asf/mach/hacc_export.c" 1
	.word 0xe7f001f2
@ 0 "" 2
.L7:
	.loc 1 135 0
	adds	r0, r8, #0
	ldr	r1, .L22+16
	movne	r0, #1
	b	.L16
.LVL9:
.L18:
	.loc 1 83 0
	str	r2, [fp, #-40]
	str	r3, [fp, #-44]
	bl	osal_hacc_lock
.LVL10:
	.loc 1 85 0
	ldr	r2, [fp, #-40]
	ldr	r3, [fp, #-44]
	cmp	r0, #0
	beq	.L2
	.loc 1 87 0
	movw	r2, #24586
	b	.L3
.LVL11:
.L21:
	.loc 1 146 0
	ldr	r2, .L22
	ldrb	r2, [r2, #1]	@ zero_extendqisi2
	cmp	r2, #0
	beq	.L13
	.loc 1 153 0
	mov	r0, r3
	mov	r1, #32
	bl	hacc_set_key
.LVL12:
	.loc 1 155 0
	subs	r2, r0, #0
	beq	.L15
	b	.L3
.LVL13:
.L11:
	.loc 1 102 0
	movw	r2, #24584
	b	.L3
.L13:
	.loc 1 148 0
	movw	r2, #24583
	b	.L3
.L23:
	.align	2
.L22:
	.word	.LANCHOR0
	.word	.LANCHOR1
	.word	.LC1
	.word	.LC0
	.word	.LANCHOR1+32
.LFE183:
	.size	sp_hacc_internal, .-sp_hacc_internal
	.align	2
	.global	sp_hacc_enc
	.type	sp_hacc_enc, %function
sp_hacc_enc:
.LFB184:
	.loc 1 191 0
	@ args = 4, pretend = 0, frame = 0
	@ frame_needed = 1, uses_anonymous_args = 0
.LVL14:
	mov	ip, sp
.LCFI4:
	stmfd	sp!, {fp, ip, lr, pc}
.LCFI5:
	sub	fp, ip, #4
.LCFI6:
	sub	sp, sp, #16
.LCFI7:
	.loc 1 192 0
	mov	ip, #1
	str	ip, [sp, #4]
	str	ip, [sp, #8]
	ldrb	ip, [fp, #4]	@ zero_extendqisi2
	str	ip, [sp, #0]
	bl	sp_hacc_internal
.LVL15:
	.loc 1 193 0
	sub	sp, fp, #12
	ldmfd	sp, {fp, sp, pc}
.LFE184:
	.size	sp_hacc_enc, .-sp_hacc_enc
	.align	2
	.global	sp_hacc_dec
	.type	sp_hacc_dec, %function
sp_hacc_dec:
.LFB185:
	.loc 1 200 0
	@ args = 4, pretend = 0, frame = 0
	@ frame_needed = 1, uses_anonymous_args = 0
.LVL16:
	mov	ip, sp
.LCFI8:
	stmfd	sp!, {fp, ip, lr, pc}
.LCFI9:
	sub	fp, ip, #4
.LCFI10:
	sub	sp, sp, #16
.LCFI11:
	.loc 1 201 0
	mov	ip, #0
	str	ip, [sp, #4]
	str	ip, [sp, #8]
	ldrb	ip, [fp, #4]	@ zero_extendqisi2
	str	ip, [sp, #0]
	bl	sp_hacc_internal
.LVL17:
	.loc 1 202 0
	sub	sp, fp, #12
	ldmfd	sp, {fp, sp, pc}
.LFE185:
	.size	sp_hacc_dec, .-sp_hacc_dec
	.align	2
	.global	sp_hacc_blk_sz
	.type	sp_hacc_blk_sz, %function
sp_hacc_blk_sz:
.LFB186:
	.loc 1 208 0
	@ args = 0, pretend = 0, frame = 0
	@ frame_needed = 1, uses_anonymous_args = 0
	mov	ip, sp
.LCFI12:
	stmfd	sp!, {fp, ip, lr, pc}
.LCFI13:
	sub	fp, ip, #4
.LCFI14:
	.loc 1 210 0
	mov	r0, #16
	ldmfd	sp, {fp, sp, pc}
.LFE186:
	.size	sp_hacc_blk_sz, .-sp_hacc_blk_sz
	.align	2
	.global	sp_hacc_init
	.type	sp_hacc_init, %function
sp_hacc_init:
.LFB187:
	.loc 1 216 0
	@ args = 0, pretend = 0, frame = 40
	@ frame_needed = 1, uses_anonymous_args = 0
.LVL18:
	mov	ip, sp
.LCFI15:
	stmfd	sp!, {fp, ip, lr, pc}
.LCFI16:
	sub	fp, ip, #4
.LCFI17:
	sub	sp, sp, #48
.LCFI18:
.LVL19:
	.loc 1 220 0
	cmp	r1, #16
	.loc 1 222 0
	movwne	r0, #24580
.LVL20:
	.loc 1 220 0
	beq	.L32
.LVL21:
.L28:
	.loc 1 235 0
	sub	sp, fp, #12
	ldmfd	sp, {fp, sp, pc}
.LVL22:
.L32:
	.loc 1 225 0
	sub	r1, fp, #12
.LVL23:
	.loc 1 226 0
	mov	r3, #0
	.loc 1 225 0
	mov	r2, #32
	str	r2, [fp, #-48]
.LVL24:
.L29:
	.loc 1 215 0
	sub	ip, fp, #48
	.loc 1 228 0
	ldrb	r2, [r0, r3]	@ zero_extendqisi2
	.loc 1 215 0
	add	lr, ip, r3
	.loc 1 226 0 discriminator 2
	add	r3, r3, #1
.LVL25:
	.loc 1 226 0 is_stmt 0 discriminator 1
	cmp	r3, #16
	.loc 1 229 0 is_stmt 1
	add	ip, r2, #1
	.loc 1 228 0
	strb	r2, [lr, #4]
	.loc 1 229 0
	strb	ip, [r1, #-1]!
	.loc 1 226 0 discriminator 1
	bne	.L29
	.loc 1 232 0 discriminator 1
	ldrb	ip, [fp, #-41]	@ zero_extendqisi2
	ldrb	r1, [fp, #-44]	@ zero_extendqisi2
	ldrb	r2, [fp, #-43]	@ zero_extendqisi2
	ldrb	r3, [fp, #-42]	@ zero_extendqisi2
.LVL26:
	ldr	r0, .L33
	str	ip, [sp, #0]
	bl	printk
	.loc 1 234 0
	sub	r0, fp, #48
	bl	hacc_init
	b	.L28
.L34:
	.align	2
.L33:
	.word	.LC2
.LFE187:
	.size	sp_hacc_init, .-sp_hacc_init
	.global	bHACC_SWKeyInit
	.global	bHACC_HWWrapKeyInit
	.section	.rodata
	.align	2
.LANCHOR1 = . + 0
	.type	g_HACC_CFG_1, %object
	.size	g_HACC_CFG_1, 32
g_HACC_CFG_1:
	.word	-1630272512
	.word	15238305
	.word	-470776899
	.word	793669002
	.word	-8155556
	.word	-381640477
	.word	-1924272954
	.word	1174145417
	.type	g_HACC_CFG_2, %object
	.size	g_HACC_CFG_2, 32
g_HACC_CFG_2:
	.word	-1437324070
	.word	1431445780
	.word	-470776899
	.word	1431445780
	.word	-1437324070
	.word	-1437324070
	.word	1431445780
	.word	-1437324070
	.section	.rodata.str1.4,"aMS",%progbits,1
	.align	2
.LC0:
	.ascii	"[%s] Fail (0x%x)\012\000"
	.space	2
.LC1:
	.ascii	"ASF\000"
.LC2:
	.ascii	"0x%x,0x%x,0x%x,0x%x\012\000"
	.bss
.LANCHOR0 = . + 0
	.type	bHACC_SWKeyInit, %object
	.size	bHACC_SWKeyInit, 1
bHACC_SWKeyInit:
	.space	1
	.type	bHACC_HWWrapKeyInit, %object
	.size	bHACC_HWWrapKeyInit, 1
bHACC_HWWrapKeyInit:
	.space	1
	.section	.debug_frame,"",%progbits
.Lframe0:
	.4byte	.LECIE0-.LSCIE0
.LSCIE0:
	.4byte	0xffffffff
	.byte	0x1
	.ascii	"\000"
	.uleb128 0x1
	.sleb128 -4
	.byte	0xe
	.byte	0xc
	.uleb128 0xd
	.uleb128 0
	.align	2
.LECIE0:
.LSFDE0:
	.4byte	.LEFDE0-.LASFDE0
.LASFDE0:
	.4byte	.Lframe0
	.4byte	.LFB183
	.4byte	.LFE183-.LFB183
	.byte	0x4
	.4byte	.LCFI0-.LFB183
	.byte	0xd
	.uleb128 0xc
	.byte	0x4
	.4byte	.LCFI1-.LCFI0
	.byte	0x8e
	.uleb128 0x2
	.byte	0x8d
	.uleb128 0x3
	.byte	0x8b
	.uleb128 0x4
	.byte	0x88
	.uleb128 0x5
	.byte	0x87
	.uleb128 0x6
	.byte	0x86
	.uleb128 0x7
	.byte	0x85
	.uleb128 0x8
	.byte	0x84
	.uleb128 0x9
	.byte	0x4
	.4byte	.LCFI2-.LCFI1
	.byte	0xc
	.uleb128 0xb
	.uleb128 0x4
	.align	2
.LEFDE0:
.LSFDE2:
	.4byte	.LEFDE2-.LASFDE2
.LASFDE2:
	.4byte	.Lframe0
	.4byte	.LFB184
	.4byte	.LFE184-.LFB184
	.byte	0x4
	.4byte	.LCFI4-.LFB184
	.byte	0xd
	.uleb128 0xc
	.byte	0x4
	.4byte	.LCFI5-.LCFI4
	.byte	0x8e
	.uleb128 0x2
	.byte	0x8d
	.uleb128 0x3
	.byte	0x8b
	.uleb128 0x4
	.byte	0x4
	.4byte	.LCFI6-.LCFI5
	.byte	0xc
	.uleb128 0xb
	.uleb128 0x4
	.align	2
.LEFDE2:
.LSFDE4:
	.4byte	.LEFDE4-.LASFDE4
.LASFDE4:
	.4byte	.Lframe0
	.4byte	.LFB185
	.4byte	.LFE185-.LFB185
	.byte	0x4
	.4byte	.LCFI8-.LFB185
	.byte	0xd
	.uleb128 0xc
	.byte	0x4
	.4byte	.LCFI9-.LCFI8
	.byte	0x8e
	.uleb128 0x2
	.byte	0x8d
	.uleb128 0x3
	.byte	0x8b
	.uleb128 0x4
	.byte	0x4
	.4byte	.LCFI10-.LCFI9
	.byte	0xc
	.uleb128 0xb
	.uleb128 0x4
	.align	2
.LEFDE4:
.LSFDE6:
	.4byte	.LEFDE6-.LASFDE6
.LASFDE6:
	.4byte	.Lframe0
	.4byte	.LFB186
	.4byte	.LFE186-.LFB186
	.byte	0x4
	.4byte	.LCFI12-.LFB186
	.byte	0xd
	.uleb128 0xc
	.byte	0x4
	.4byte	.LCFI13-.LCFI12
	.byte	0x8e
	.uleb128 0x2
	.byte	0x8d
	.uleb128 0x3
	.byte	0x8b
	.uleb128 0x4
	.byte	0x4
	.4byte	.LCFI14-.LCFI13
	.byte	0xc
	.uleb128 0xb
	.uleb128 0x4
	.align	2
.LEFDE6:
.LSFDE8:
	.4byte	.LEFDE8-.LASFDE8
.LASFDE8:
	.4byte	.Lframe0
	.4byte	.LFB187
	.4byte	.LFE187-.LFB187
	.byte	0x4
	.4byte	.LCFI15-.LFB187
	.byte	0xd
	.uleb128 0xc
	.byte	0x4
	.4byte	.LCFI16-.LCFI15
	.byte	0x8e
	.uleb128 0x2
	.byte	0x8d
	.uleb128 0x3
	.byte	0x8b
	.uleb128 0x4
	.byte	0x4
	.4byte	.LCFI17-.LCFI16
	.byte	0xc
	.uleb128 0xb
	.uleb128 0x4
	.align	2
.LEFDE8:
	.text
.Letext0:
	.file 2 "alps/kernel/arch/arm/include/asm/outercache.h"
	.file 3 "alps/kernel/mediatek/platform/mt6577/kernel/drivers/masp/asf/inc/hacc_export.h"
	.file 4 "alps/kernel/mediatek/platform/mt6577/kernel/drivers/masp/asf/inc/sec_typedef.h"
	.file 5 "alps/kernel/../mediatek/platform/mt6577/kernel/core/include/mach/mt_typedefs.h"
	.file 6 "alps/kernel/mediatek/platform/mt6577/kernel/drivers/masp/asf/inc/hacc_def.h"
	.file 7 "alps/kernel/arch/arm/include/asm/hwcap.h"
	.file 8 "alps/kernel/include/linux/printk.h"
	.file 9 "alps/kernel/include/linux/kernel.h"
	.file 10 "alps/kernel/../mediatek/platform/mt6577/kernel/core/include/mach/mt_clock_manager.h"
	.section	.note.GNU-stack,"",%progbits
