	.arch armv7-a
	.fpu softvfp
	.eabi_attribute 20, 1
	.eabi_attribute 21, 1
	.eabi_attribute 23, 3
	.eabi_attribute 24, 1
	.eabi_attribute 25, 1
	.eabi_attribute 26, 2
	.eabi_attribute 30, 2
	.eabi_attribute 18, 4
	.file	"sec_uid.c"
	.text
.Ltext0:
	.align	2
	.global	secpal_memcpy
	.type	secpal_memcpy, %function
secpal_memcpy:
.LFB147:
	.file 1 "alps/kernel/mediatek/platform/mt6577/kernel/drivers/masp/asf/mach/sec_uid.c"
	.loc 1 45 0
	@ args = 0, pretend = 0, frame = 0
	@ frame_needed = 1, uses_anonymous_args = 0
.LVL0:
	mov	ip, sp
.LCFI0:
	stmfd	sp!, {fp, ip, lr, pc}
.LCFI1:
	sub	fp, ip, #4
.LCFI2:
	.loc 1 46 0
	bl	memcpy
.LVL1:
	.loc 1 47 0
	ldmfd	sp, {fp, sp, pc}
.LFE147:
	.size	secpal_memcpy, .-secpal_memcpy
	.align	2
	.global	secpal_memset
	.type	secpal_memset, %function
secpal_memset:
.LFB148:
	.loc 1 50 0
	@ args = 0, pretend = 0, frame = 0
	@ frame_needed = 1, uses_anonymous_args = 0
.LVL2:
	mov	ip, sp
.LCFI3:
	stmfd	sp!, {r3, r4, fp, ip, lr, pc}
.LCFI4:
	sub	fp, ip, #4
.LCFI5:
.LBB2:
	.loc 1 51 0
	cmp	r2, #0
.LBE2:
	.loc 1 50 0
	mov	r4, r0
.LVL3:
.LBB3:
	.loc 1 51 0
	beq	.L3
	.loc 1 51 0 is_stmt 0 discriminator 4
	bl	memset
.LVL4:
.L3:
.LBE3:
	.loc 1 52 0 is_stmt 1
	mov	r0, r4
	ldmfd	sp, {r3, r4, fp, sp, pc}
.LFE148:
	.size	secpal_memset, .-secpal_memset
	.align	2
	.global	secpal_print
	.type	secpal_print, %function
secpal_print:
.LFB149:
	.loc 1 55 0
	@ args = 4, pretend = 16, frame = 8
	@ frame_needed = 1, uses_anonymous_args = 1
.LVL5:
	mov	ip, sp
.LCFI6:
	stmfd	sp!, {r0, r1, r2, r3}
.LCFI7:
	stmfd	sp!, {fp, ip, lr, pc}
.LCFI8:
	sub	fp, ip, #20
.LCFI9:
	sub	sp, sp, #8
.LCFI10:
	.loc 1 58 0
	add	r1, fp, #8
	.loc 1 59 0
	ldr	r0, [fp, #4]
	.loc 1 58 0
	str	r1, [fp, #-16]
	.loc 1 59 0
	bl	vprintk
	.loc 1 63 0
	mov	r0, #0
	sub	sp, fp, #12
	ldmfd	sp, {fp, sp, pc}
.LFE149:
	.size	secpal_print, .-secpal_print
	.align	2
	.global	secpal_get_uuid
	.type	secpal_get_uuid, %function
secpal_get_uuid:
.LFB150:
	.loc 1 66 0
	@ args = 0, pretend = 0, frame = 0
	@ frame_needed = 1, uses_anonymous_args = 0
.LVL6:
	mov	ip, sp
.LCFI11:
	stmfd	sp!, {fp, ip, lr, pc}
.LCFI12:
	sub	fp, ip, #4
.LCFI13:
	.loc 1 67 0
	mov	r3, #36864
	movt	r3, 61697
	.loc 1 66 0
	mov	r2, r0
	.loc 1 73 0
	mov	r0, #0
.LVL7:
	.loc 1 67 0
	ldr	r1, [r3, #320]
	str	r1, [r2, #0]
	.loc 1 68 0
	ldr	r1, [r3, #324]
	str	r1, [r2, #4]
	.loc 1 69 0
	ldr	r1, [r3, #320]
	str	r1, [r2, #8]
	.loc 1 70 0
	ldr	r3, [r3, #324]
	str	r3, [r2, #12]
	.loc 1 73 0
	ldmfd	sp, {fp, sp, pc}
.LFE150:
	.size	secpal_get_uuid, .-secpal_get_uuid
	.section	.debug_frame,"",%progbits
.Lframe0:
	.4byte	.LECIE0-.LSCIE0
.LSCIE0:
	.4byte	0xffffffff
	.byte	0x1
	.ascii	"\000"
	.uleb128 0x1
	.sleb128 -4
	.byte	0xe
	.byte	0xc
	.uleb128 0xd
	.uleb128 0
	.align	2
.LECIE0:
.LSFDE0:
	.4byte	.LEFDE0-.LASFDE0
.LASFDE0:
	.4byte	.Lframe0
	.4byte	.LFB147
	.4byte	.LFE147-.LFB147
	.byte	0x4
	.4byte	.LCFI0-.LFB147
	.byte	0xd
	.uleb128 0xc
	.byte	0x4
	.4byte	.LCFI1-.LCFI0
	.byte	0x8e
	.uleb128 0x2
	.byte	0x8d
	.uleb128 0x3
	.byte	0x8b
	.uleb128 0x4
	.byte	0x4
	.4byte	.LCFI2-.LCFI1
	.byte	0xc
	.uleb128 0xb
	.uleb128 0x4
	.align	2
.LEFDE0:
.LSFDE2:
	.4byte	.LEFDE2-.LASFDE2
.LASFDE2:
	.4byte	.Lframe0
	.4byte	.LFB148
	.4byte	.LFE148-.LFB148
	.byte	0x4
	.4byte	.LCFI3-.LFB148
	.byte	0xd
	.uleb128 0xc
	.byte	0x4
	.4byte	.LCFI4-.LCFI3
	.byte	0x8e
	.uleb128 0x2
	.byte	0x8d
	.uleb128 0x3
	.byte	0x8b
	.uleb128 0x4
	.byte	0x84
	.uleb128 0x5
	.byte	0x83
	.uleb128 0x6
	.byte	0x4
	.4byte	.LCFI5-.LCFI4
	.byte	0xc
	.uleb128 0xb
	.uleb128 0x4
	.align	2
.LEFDE2:
.LSFDE4:
	.4byte	.LEFDE4-.LASFDE4
.LASFDE4:
	.4byte	.Lframe0
	.4byte	.LFB149
	.4byte	.LFE149-.LFB149
	.byte	0x4
	.4byte	.LCFI6-.LFB149
	.byte	0xd
	.uleb128 0xc
	.byte	0x4
	.4byte	.LCFI8-.LCFI6
	.byte	0x8e
	.uleb128 0x6
	.byte	0x8d
	.uleb128 0x7
	.byte	0x8b
	.uleb128 0x8
	.byte	0x83
	.uleb128 0x1
	.byte	0x82
	.uleb128 0x2
	.byte	0x81
	.uleb128 0x3
	.byte	0x80
	.uleb128 0x4
	.byte	0x4
	.4byte	.LCFI9-.LCFI8
	.byte	0xc
	.uleb128 0xb
	.uleb128 0x14
	.align	2
.LEFDE4:
.LSFDE6:
	.4byte	.LEFDE6-.LASFDE6
.LASFDE6:
	.4byte	.Lframe0
	.4byte	.LFB150
	.4byte	.LFE150-.LFB150
	.byte	0x4
	.4byte	.LCFI11-.LFB150
	.byte	0xd
	.uleb128 0xc
	.byte	0x4
	.4byte	.LCFI12-.LCFI11
	.byte	0x8e
	.uleb128 0x2
	.byte	0x8d
	.uleb128 0x3
	.byte	0x8b
	.uleb128 0x4
	.byte	0x4
	.4byte	.LCFI13-.LCFI12
	.byte	0xc
	.uleb128 0xb
	.uleb128 0x4
	.align	2
.LEFDE6:
	.text
.Letext0:
	.file 2 "alps/kernel/include/asm-generic/posix_types.h"
	.file 3 "alps/kernel/include/linux/types.h"
	.file 4 "alps/prebuilts/gcc/linux-x86/arm/arm-linux-androideabi-4.6/bin/../lib/gcc/arm-linux-androideabi/4.6.x-google/include/stdarg.h"
	.file 5 "<built-in>"
	.file 6 "alps/kernel/arch/arm/include/asm/outercache.h"
	.file 7 "alps/kernel/arch/arm/include/asm/hwcap.h"
	.file 8 "alps/kernel/include/linux/printk.h"
	.file 9 "alps/kernel/include/linux/kernel.h"
	.section	.note.GNU-stack,"",%progbits
